target datalayout = "e-m:e-p270:32:32-p271:32:32-p272:64:64-i64:64-i128:128-f80:128-n8:16:32:64-S128"
target triple = "x86_64-pc-linux-gnu"

%struct.RBasic = type { i64, i64 }

; Function Attrs: inlinehint nounwind sspstrong willreturn memory(none) uwtable
define internal zeroext i1 @RB_IMMEDIATE_P(i64 noundef %0) #4 {
  %2 = alloca i64, align 8
  store i64 %0, ptr %2, align 8, !tbaa !7
  %3 = load i64, ptr %2, align 8, !tbaa !7
  %4 = and i64 %3, 7
  %5 = icmp ne i64 %4, 0
  ret i1 %5
}

; Function Attrs: inlinehint nounwind sspstrong willreturn memory(none) uwtable
define internal zeroext i1 @RB_FLONUM_P(i64 noundef %0) #4 {
  %2 = alloca i64, align 8
  store i64 %0, ptr %2, align 8, !tbaa !7
  %3 = load i64, ptr %2, align 8, !tbaa !7
  %4 = and i64 %3, 3
  %5 = icmp eq i64 %4, 2
  ret i1 %5
}

; Function Attrs: inlinehint nounwind sspstrong willreturn memory(read) uwtable
define internal zeroext i1 @RB_DYNAMIC_SYM_P(i64 noundef %0) #5 {
  %2 = alloca i1, align 1
  %3 = alloca i64, align 8
  store i64 %0, ptr %3, align 8, !tbaa !7
  %4 = load i64, ptr %3, align 8, !tbaa !7
  %5 = call zeroext i1 @RB_SPECIAL_CONST_P(i64 noundef %4) #26
  br i1 %5, label %6, label %7

6:                                                ; preds = %1
  store i1 false, ptr %2, align 1
  br label %11

7:                                                ; preds = %1
  %8 = load i64, ptr %3, align 8, !tbaa !7
  %9 = call i32 @RB_BUILTIN_TYPE(i64 noundef %8) #27
  %10 = icmp eq i32 %9, 20
  store i1 %10, ptr %2, align 1
  br label %11

11:                                               ; preds = %7, %6
  %12 = load i1, ptr %2, align 1
  ret i1 %12
}

; Function Attrs: inlinehint nounwind sspstrong willreturn memory(none) uwtable
define internal zeroext i1 @RB_STATIC_SYM_P(i64 noundef %0) #4 {
  %2 = alloca i64, align 8
  %3 = alloca i64, align 8
  store i64 %0, ptr %2, align 8, !tbaa !7
  call void @llvm.lifetime.start.p0(i64 8, ptr %3) #25
  store i64 255, ptr %3, align 8, !tbaa !7
  %4 = load i64, ptr %2, align 8, !tbaa !7
  %5 = and i64 %4, 255
  %6 = icmp eq i64 %5, 12
  call void @llvm.lifetime.end.p0(i64 8, ptr %3) #25
  ret i1 %6
}

; Function Attrs: inlinehint nounwind sspstrong willreturn memory(none) uwtable
define internal i64 @RB_INT2FIX(i64 noundef %0) #4 {
  %2 = alloca i64, align 8
  %3 = alloca i64, align 8
  %4 = alloca i64, align 8
  %5 = alloca i64, align 8
  %6 = alloca i64, align 8
  %7 = alloca i64, align 8
  store i64 %0, ptr %2, align 8, !tbaa !7
  call void @llvm.lifetime.start.p0(i64 8, ptr %3) #25
  %8 = load i64, ptr %2, align 8, !tbaa !7
  store i64 %8, ptr %3, align 8, !tbaa !7
  call void @llvm.lifetime.start.p0(i64 8, ptr %4) #25
  %9 = load i64, ptr %3, align 8, !tbaa !7
  %10 = shl i64 %9, 1
  %11 = add i64 %10, 1
  store i64 %11, ptr %4, align 8, !tbaa !7
  call void @llvm.lifetime.start.p0(i64 8, ptr %5) #25
  %12 = load i64, ptr %4, align 8, !tbaa !7
  store i64 %12, ptr %5, align 8, !tbaa !7
  call void @llvm.lifetime.start.p0(i64 8, ptr %6) #25
  %13 = load i64, ptr %5, align 8, !tbaa !7
  store i64 %13, ptr %6, align 8, !tbaa !7
  call void @llvm.lifetime.start.p0(i64 8, ptr %7) #25
  %14 = load i64, ptr %6, align 8, !tbaa !7
  store i64 %14, ptr %7, align 8, !tbaa !7
  %15 = load i64, ptr %7, align 8, !tbaa !7
  call void @llvm.lifetime.end.p0(i64 8, ptr %7) #25
  call void @llvm.lifetime.end.p0(i64 8, ptr %6) #25
  call void @llvm.lifetime.end.p0(i64 8, ptr %5) #25
  call void @llvm.lifetime.end.p0(i64 8, ptr %4) #25
  call void @llvm.lifetime.end.p0(i64 8, ptr %3) #25
  ret i64 %15
}

; Function Attrs: inlinehint nounwind sspstrong willreturn memory(none) uwtable
define internal i64 @rbimpl_fix2long_by_idiv(i64 noundef %0) #4 {
  %2 = alloca i64, align 8
  %3 = alloca i64, align 8
  %4 = alloca i64, align 8
  %5 = alloca i64, align 8
  store i64 %0, ptr %2, align 8, !tbaa !7
  call void @llvm.lifetime.start.p0(i64 8, ptr %3) #25
  %6 = load i64, ptr %2, align 8, !tbaa !7
  %7 = sub i64 %6, 1
  store i64 %7, ptr %3, align 8, !tbaa !7
  call void @llvm.lifetime.start.p0(i64 8, ptr %4) #25
  %8 = load i64, ptr %3, align 8, !tbaa !7
  %9 = sdiv i64 %8, 2
  store i64 %9, ptr %4, align 8, !tbaa !7
  call void @llvm.lifetime.start.p0(i64 8, ptr %5) #25
  %10 = load i64, ptr %4, align 8, !tbaa !7
  store i64 %10, ptr %5, align 8, !tbaa !7
  %11 = load i64, ptr %5, align 8, !tbaa !7
  call void @llvm.lifetime.end.p0(i64 8, ptr %5) #25
  call void @llvm.lifetime.end.p0(i64 8, ptr %4) #25
  call void @llvm.lifetime.end.p0(i64 8, ptr %3) #25
  ret i64 %11
}

; Function Attrs: inlinehint nounwind sspstrong willreturn memory(none) uwtable
define internal i64 @rbimpl_fix2long_by_shift(i64 noundef %0) #4 {
  %2 = alloca i64, align 8
  %3 = alloca i64, align 8
  %4 = alloca i64, align 8
  %5 = alloca i64, align 8
  store i64 %0, ptr %2, align 8, !tbaa !7
  call void @llvm.lifetime.start.p0(i64 8, ptr %3) #25
  %6 = load i64, ptr %2, align 8, !tbaa !7
  store i64 %6, ptr %3, align 8, !tbaa !7
  call void @llvm.lifetime.start.p0(i64 8, ptr %4) #25
  %7 = load i64, ptr %3, align 8, !tbaa !7
  %8 = ashr i64 %7, 1
  store i64 %8, ptr %4, align 8, !tbaa !7
  call void @llvm.lifetime.start.p0(i64 8, ptr %5) #25
  %9 = load i64, ptr %4, align 8, !tbaa !7
  store i64 %9, ptr %5, align 8, !tbaa !7
  %10 = load i64, ptr %5, align 8, !tbaa !7
  call void @llvm.lifetime.end.p0(i64 8, ptr %5) #25
  call void @llvm.lifetime.end.p0(i64 8, ptr %4) #25
  call void @llvm.lifetime.end.p0(i64 8, ptr %3) #25
  ret i64 %10
}

; Function Attrs: inlinehint nounwind sspstrong willreturn memory(none) uwtable
define internal zeroext i1 @rbimpl_right_shift_is_arithmetic_p() #4 {
  ret i1 true
}

; Function Attrs: inlinehint nounwind sspstrong willreturn memory(read) uwtable
define internal i32 @rb_type(i64 noundef %0) #5 {
  %2 = alloca i32, align 4
  %3 = alloca i64, align 8
  store i64 %0, ptr %3, align 8, !tbaa !7
  %4 = load i64, ptr %3, align 8, !tbaa !7
  %5 = call zeroext i1 @RB_SPECIAL_CONST_P(i64 noundef %4) #26
  br i1 %5, label %9, label %6

6:                                                ; preds = %1
  %7 = load i64, ptr %3, align 8, !tbaa !7
  %8 = call i32 @RB_BUILTIN_TYPE(i64 noundef %7) #27
  store i32 %8, ptr %2, align 4
  br label %36

9:                                                ; preds = %1
  %10 = load i64, ptr %3, align 8, !tbaa !7
  %11 = icmp eq i64 %10, 0
  br i1 %11, label %12, label %13

12:                                               ; preds = %9
  store i32 19, ptr %2, align 4
  br label %36

13:                                               ; preds = %9
  %14 = load i64, ptr %3, align 8, !tbaa !7
  %15 = icmp eq i64 %14, 4
  br i1 %15, label %16, label %17

16:                                               ; preds = %13
  store i32 17, ptr %2, align 4
  br label %36

17:                                               ; preds = %13
  %18 = load i64, ptr %3, align 8, !tbaa !7
  %19 = icmp eq i64 %18, 20
  br i1 %19, label %20, label %21

20:                                               ; preds = %17
  store i32 18, ptr %2, align 4
  br label %36

21:                                               ; preds = %17
  %22 = load i64, ptr %3, align 8, !tbaa !7
  %23 = icmp eq i64 %22, 36
  br i1 %23, label %24, label %25

24:                                               ; preds = %21
  store i32 22, ptr %2, align 4
  br label %36

25:                                               ; preds = %21
  %26 = load i64, ptr %3, align 8, !tbaa !7
  %27 = call zeroext i1 @RB_FIXNUM_P(i64 noundef %26) #26
  br i1 %27, label %28, label %29

28:                                               ; preds = %25
  store i32 21, ptr %2, align 4
  br label %36

29:                                               ; preds = %25
  %30 = load i64, ptr %3, align 8, !tbaa !7
  %31 = call zeroext i1 @RB_STATIC_SYM_P(i64 noundef %30) #26
  br i1 %31, label %32, label %33

32:                                               ; preds = %29
  store i32 20, ptr %2, align 4
  br label %36

33:                                               ; preds = %29
  %34 = load i64, ptr %3, align 8, !tbaa !7
  %35 = call zeroext i1 @RB_FLONUM_P(i64 noundef %34) #26
  call void @llvm.assume(i1 %35)
  store i32 4, ptr %2, align 4
  br label %36

36:                                               ; preds = %33, %32, %28, %24, %20, %16, %12, %6
  %37 = load i32, ptr %2, align 4
  ret i32 %37
}

; Function Attrs: inlinehint nounwind sspstrong willreturn memory(read) uwtable
define internal i32 @RB_BUILTIN_TYPE(i64 noundef %0) #5 {
  %2 = alloca i64, align 8
  %3 = alloca i64, align 8
  store i64 %0, ptr %2, align 8, !tbaa !7
  call void @llvm.lifetime.start.p0(i64 8, ptr %3) #25
  %4 = load i64, ptr %2, align 8, !tbaa !7
  %5 = inttoptr i64 %4 to ptr
  %6 = getelementptr inbounds nuw %struct.RBasic, ptr %5, i32 0, i32 0
  %7 = load i64, ptr %6, align 8, !tbaa !49
  %8 = and i64 %7, 31
  store i64 %8, ptr %3, align 8, !tbaa !7
  %9 = load i64, ptr %3, align 8, !tbaa !7
  %10 = trunc i64 %9 to i32
  call void @llvm.lifetime.end.p0(i64 8, ptr %3) #25
  ret i32 %10
}

; Function Attrs: inlinehint nounwind sspstrong willreturn memory(none) uwtable
define internal zeroext i1 @RB_SPECIAL_CONST_P(i64 noundef %0) #4 {
  %2 = alloca i64, align 8
  store i64 %0, ptr %2, align 8, !tbaa !7
  %3 = load i64, ptr %2, align 8, !tbaa !7
  %4 = icmp eq i64 %3, 0
  br i1 %4, label %8, label %5

5:                                                ; preds = %1
  %6 = load i64, ptr %2, align 8, !tbaa !7
  %7 = call zeroext i1 @RB_IMMEDIATE_P(i64 noundef %6) #26
  br label %8

8:                                                ; preds = %5, %1
  %9 = phi i1 [ true, %1 ], [ %7, %5 ]
  ret i1 %9
}

; Function Attrs: inlinehint nounwind sspstrong willreturn memory(read) uwtable
define internal zeroext i1 @RB_FLOAT_TYPE_P(i64 noundef %0) #5 {
  %2 = alloca i1, align 1
  %3 = alloca i64, align 8
  store i64 %0, ptr %3, align 8, !tbaa !7
  %4 = load i64, ptr %3, align 8, !tbaa !7
  %5 = call zeroext i1 @RB_FLONUM_P(i64 noundef %4) #26
  br i1 %5, label %6, label %7

6:                                                ; preds = %1
  store i1 true, ptr %2, align 1
  br label %15

7:                                                ; preds = %1
  %8 = load i64, ptr %3, align 8, !tbaa !7
  %9 = call zeroext i1 @RB_SPECIAL_CONST_P(i64 noundef %8) #26
  br i1 %9, label %10, label %11

10:                                               ; preds = %7
  store i1 false, ptr %2, align 1
  br label %15

11:                                               ; preds = %7
  %12 = load i64, ptr %3, align 8, !tbaa !7
  %13 = call i32 @RB_BUILTIN_TYPE(i64 noundef %12) #27
  %14 = icmp eq i32 %13, 4
  store i1 %14, ptr %2, align 1
  br label %15

15:                                               ; preds = %11, %10, %6
  %16 = load i1, ptr %2, align 1
  ret i1 %16
}

; Function Attrs: inlinehint nounwind sspstrong willreturn memory(read) uwtable
define internal zeroext i1 @RB_SYMBOL_P(i64 noundef %0) #5 {
  %2 = alloca i64, align 8
  store i64 %0, ptr %2, align 8, !tbaa !7
  %3 = load i64, ptr %2, align 8, !tbaa !7
  %4 = call zeroext i1 @RB_STATIC_SYM_P(i64 noundef %3) #26
  br i1 %4, label %8, label %5

5:                                                ; preds = %1
  %6 = load i64, ptr %2, align 8, !tbaa !7
  %7 = call zeroext i1 @RB_DYNAMIC_SYM_P(i64 noundef %6) #27
  br label %8

8:                                                ; preds = %5, %1
  %9 = phi i1 [ true, %1 ], [ %7, %5 ]
  ret i1 %9
}

; Function Attrs: inlinehint nounwind sspstrong uwtable
define internal i64 @rb_long2num_inline(i64 noundef %0) #8 {
  %2 = alloca i64, align 8
  %3 = alloca i64, align 8
  store i64 %0, ptr %3, align 8, !tbaa !7
  %4 = load i64, ptr %3, align 8, !tbaa !7
  %5 = icmp slt i64 %4, 4611686018427387904
  br i1 %5, label %6, label %12

6:                                                ; preds = %1
  %7 = load i64, ptr %3, align 8, !tbaa !7
  %8 = icmp sge i64 %7, -4611686018427387904
  br i1 %8, label %9, label %12

9:                                                ; preds = %6
  %10 = load i64, ptr %3, align 8, !tbaa !7
  %11 = call i64 @RB_INT2FIX(i64 noundef %10) #26
  store i64 %11, ptr %2, align 8
  br label %15

12:                                               ; preds = %6, %1
  %13 = load i64, ptr %3, align 8, !tbaa !7
  %14 = call i64 @rb_int2big(i64 noundef %13)
  store i64 %14, ptr %2, align 8
  br label %15

15:                                               ; preds = %12, %9
  %16 = load i64, ptr %2, align 8
  ret i64 %16
}

; Function Attrs: inlinehint nounwind sspstrong willreturn memory(none) uwtable
define internal i64 @rb_fix2long(i64 noundef %0) #4 {
  %2 = alloca i64, align 8
  %3 = alloca i64, align 8
  store i64 %0, ptr %3, align 8, !tbaa !7
  %4 = call zeroext i1 @rbimpl_right_shift_is_arithmetic_p() #26
  br i1 %4, label %5, label %8

5:                                                ; preds = %1
  %6 = load i64, ptr %3, align 8, !tbaa !7
  %7 = call i64 @rbimpl_fix2long_by_shift(i64 noundef %6) #26
  store i64 %7, ptr %2, align 8
  br label %11

8:                                                ; preds = %1
  %9 = load i64, ptr %3, align 8, !tbaa !7
  %10 = call i64 @rbimpl_fix2long_by_idiv(i64 noundef %9) #26
  store i64 %10, ptr %2, align 8
  br label %11

11:                                               ; preds = %8, %5
  %12 = load i64, ptr %2, align 8
  ret i64 %12
}

; Function Attrs: inlinehint nounwind sspstrong willreturn memory(read) uwtable
define internal zeroext i1 @RB_TYPE_P(i64 noundef %0, i32 noundef %1) #5 {
  %3 = alloca i1, align 1
  %4 = alloca i64, align 8
  %5 = alloca i32, align 4
  store i64 %0, ptr %4, align 8, !tbaa !7
  store i32 %1, ptr %5, align 4, !tbaa !14
  %6 = load i32, ptr %5, align 4, !tbaa !14
  %7 = call i1 @llvm.is.constant.i32(i32 %6)
  br i1 %7, label %8, label %12

8:                                                ; preds = %2
  %9 = load i64, ptr %4, align 8, !tbaa !7
  %10 = load i32, ptr %5, align 4, !tbaa !14
  %11 = call zeroext i1 @rbimpl_RB_TYPE_P_fastpath(i64 noundef %9, i32 noundef %10) #27
  store i1 %11, ptr %3, align 1
  br label %17

12:                                               ; preds = %2
  %13 = load i32, ptr %5, align 4, !tbaa !14
  %14 = load i64, ptr %4, align 8, !tbaa !7
  %15 = call i32 @rb_type(i64 noundef %14) #27
  %16 = icmp eq i32 %13, %15
  store i1 %16, ptr %3, align 1
  br label %17

17:                                               ; preds = %12, %8
  %18 = load i1, ptr %3, align 1
  ret i1 %18
}

; Function Attrs: alwaysinline nounwind sspstrong willreturn memory(read) uwtable
define internal zeroext i1 @rbimpl_RB_TYPE_P_fastpath(i64 noundef %0, i32 noundef %1) #7 {
  %3 = alloca i1, align 1
  %4 = alloca i64, align 8
  %5 = alloca i32, align 4
  store i64 %0, ptr %4, align 8, !tbaa !7
  store i32 %1, ptr %5, align 4, !tbaa !14
  %6 = load i32, ptr %5, align 4, !tbaa !14
  %7 = icmp eq i32 %6, 18
  br i1 %7, label %8, label %11

8:                                                ; preds = %2
  %9 = load i64, ptr %4, align 8, !tbaa !7
  %10 = icmp eq i64 %9, 20
  store i1 %10, ptr %3, align 1
  br label %58

11:                                               ; preds = %2
  %12 = load i32, ptr %5, align 4, !tbaa !14
  %13 = icmp eq i32 %12, 19
  br i1 %13, label %14, label %17

14:                                               ; preds = %11
  %15 = load i64, ptr %4, align 8, !tbaa !7
  %16 = icmp eq i64 %15, 0
  store i1 %16, ptr %3, align 1
  br label %58

17:                                               ; preds = %11
  %18 = load i32, ptr %5, align 4, !tbaa !14
  %19 = icmp eq i32 %18, 17
  br i1 %19, label %20, label %23

20:                                               ; preds = %17
  %21 = load i64, ptr %4, align 8, !tbaa !7
  %22 = icmp eq i64 %21, 4
  store i1 %22, ptr %3, align 1
  br label %58

23:                                               ; preds = %17
  %24 = load i32, ptr %5, align 4, !tbaa !14
  %25 = icmp eq i32 %24, 22
  br i1 %25, label %26, label %29

26:                                               ; preds = %23
  %27 = load i64, ptr %4, align 8, !tbaa !7
  %28 = icmp eq i64 %27, 36
  store i1 %28, ptr %3, align 1
  br label %58

29:                                               ; preds = %23
  %30 = load i32, ptr %5, align 4, !tbaa !14
  %31 = icmp eq i32 %30, 21
  br i1 %31, label %32, label %35

32:                                               ; preds = %29
  %33 = load i64, ptr %4, align 8, !tbaa !7
  %34 = call zeroext i1 @RB_FIXNUM_P(i64 noundef %33) #26
  store i1 %34, ptr %3, align 1
  br label %58

35:                                               ; preds = %29
  %36 = load i32, ptr %5, align 4, !tbaa !14
  %37 = icmp eq i32 %36, 20
  br i1 %37, label %38, label %41

38:                                               ; preds = %35
  %39 = load i64, ptr %4, align 8, !tbaa !7
  %40 = call zeroext i1 @RB_SYMBOL_P(i64 noundef %39) #27
  store i1 %40, ptr %3, align 1
  br label %58

41:                                               ; preds = %35
  %42 = load i32, ptr %5, align 4, !tbaa !14
  %43 = icmp eq i32 %42, 4
  br i1 %43, label %44, label %47

44:                                               ; preds = %41
  %45 = load i64, ptr %4, align 8, !tbaa !7
  %46 = call zeroext i1 @RB_FLOAT_TYPE_P(i64 noundef %45) #27
  store i1 %46, ptr %3, align 1
  br label %58

47:                                               ; preds = %41
  %48 = load i64, ptr %4, align 8, !tbaa !7
  %49 = call zeroext i1 @RB_SPECIAL_CONST_P(i64 noundef %48) #26
  br i1 %49, label %50, label %51

50:                                               ; preds = %47
  store i1 false, ptr %3, align 1
  br label %58

51:                                               ; preds = %47
  %52 = load i32, ptr %5, align 4, !tbaa !14
  %53 = load i64, ptr %4, align 8, !tbaa !7
  %54 = call i32 @RB_BUILTIN_TYPE(i64 noundef %53) #27
  %55 = icmp eq i32 %52, %54
  br i1 %55, label %56, label %57

56:                                               ; preds = %51
  store i1 true, ptr %3, align 1
  br label %58

57:                                               ; preds = %51
  store i1 false, ptr %3, align 1
  br label %58

58:                                               ; preds = %57, %56, %50, %44, %38, %32, %26, %20, %14, %8
  %59 = load i1, ptr %3, align 1
  ret i1 %59
}

; Function Attrs: nounwind sspstrong uwtable
define internal i64 @fix_abs(i64 noundef %0) #2 {
  %2 = alloca i64, align 8
  %3 = alloca i64, align 8
  store i64 %0, ptr %2, align 8, !tbaa !7
  call void @llvm.lifetime.start.p0(i64 8, ptr %3) #25
  %4 = load i64, ptr %2, align 8, !tbaa !7
  %5 = call i64 @rb_fix2long(i64 noundef %4) #26
  store i64 %5, ptr %3, align 8, !tbaa !7
  %6 = load i64, ptr %3, align 8, !tbaa !7
  %7 = icmp slt i64 %6, 0
  br i1 %7, label %8, label %11

8:                                                ; preds = %1
  %9 = load i64, ptr %3, align 8, !tbaa !7
  %10 = sub i64 0, %9
  store i64 %10, ptr %3, align 8, !tbaa !7
  br label %11

11:                                               ; preds = %8, %1
  %12 = load i64, ptr %3, align 8, !tbaa !7
  %13 = call i64 @rb_long2num_inline(i64 noundef %12)
  call void @llvm.lifetime.end.p0(i64 8, ptr %3) #25
  ret i64 %13
}

; Function Attrs: inlinehint nounwind sspstrong willreturn memory(none) uwtable
define internal zeroext i1 @RB_FIXNUM_P(i64 noundef %0) #4 {
  %2 = alloca i64, align 8
  store i64 %0, ptr %2, align 8, !tbaa !7
  %3 = load i64, ptr %2, align 8, !tbaa !7
  %4 = and i64 %3, 1
  %5 = icmp ne i64 %4, 0
  ret i1 %5
}

; Function Attrs: nounwind sspstrong uwtable
define hidden i64 @rb_int_abs(i64 noundef %0) #2 {
  %2 = alloca i64, align 8
  %3 = alloca i64, align 8
  store i64 %0, ptr %3, align 8, !tbaa !7
  %4 = load i64, ptr %3, align 8, !tbaa !7
  %5 = call zeroext i1 @RB_FIXNUM_P(i64 noundef %4) #26
  br i1 %5, label %6, label %9

6:                                                ; preds = %1
  %7 = load i64, ptr %3, align 8, !tbaa !7
  %8 = call i64 @fix_abs(i64 noundef %7)
  store i64 %8, ptr %2, align 8
  br label %21

9:                                                ; preds = %1
  br i1 true, label %10, label %13

10:                                               ; preds = %9
  %11 = load i64, ptr %3, align 8, !tbaa !7
  %12 = call zeroext i1 @rbimpl_RB_TYPE_P_fastpath(i64 noundef %11, i32 noundef 10) #27
  br i1 %12, label %16, label %19

13:                                               ; preds = %9
  %14 = load i64, ptr %3, align 8, !tbaa !7
  %15 = call zeroext i1 @RB_TYPE_P(i64 noundef %14, i32 noundef 10) #27
  br i1 %15, label %16, label %19

16:                                               ; preds = %13, %10
  %17 = load i64, ptr %3, align 8, !tbaa !7
  %18 = call i64 @rb_big_abs(i64 noundef %17)
  store i64 %18, ptr %2, align 8
  br label %21

19:                                               ; preds = %13, %10
  br label %20

20:                                               ; preds = %19
  store i64 4, ptr %2, align 8
  br label %21

21:                                               ; preds = %20, %16, %6
  %22 = load i64, ptr %2, align 8
  ret i64 %22
}

; Function Attrs: nounwind sspstrong uwtable
define internal i64 @builtin_inline_class_134(ptr noundef %0, i64 noundef %1) #2 {
  %3 = alloca ptr, align 8
  %4 = alloca i64, align 8
  store ptr %0, ptr %3, align 8, !tbaa !32
  store i64 %1, ptr %4, align 8, !tbaa !7
  %5 = load i64, ptr %4, align 8, !tbaa !7
  %6 = call i64 @rb_int_abs(i64 noundef %5)
  ret i64 %6
}