; Function Attrs: nounwind sspstrong uwtable
define internal i64 @builtin_inline_class_134(ptr readnone captures(none) %0, i64 noundef %1) #2 {
  %3 = and i64 %1, 1
  %.not.i = icmp eq i64 %3, 0
  br i1 %.not.i, label %12, label %4

4:                                                ; preds = %2
  %5 = ashr i64 %1, 1
  %spec.select.i.i = tail call i64 @llvm.abs.i64(i64 %5, i1 true)
  %6 = add nuw i64 %spec.select.i.i, 4611686018427387904
  %or.cond.i.i.i = icmp sgt i64 %6, -1
  br i1 %or.cond.i.i.i, label %7, label %10

7:                                                ; preds = %4
  %8 = shl nuw nsw i64 %spec.select.i.i, 1
  %9 = or disjoint i64 %8, 1
  br label %rb_int_abs.exit

10:                                               ; preds = %4
  %11 = tail call i64 @rb_int2big(i64 noundef %spec.select.i.i) #26
  br label %rb_int_abs.exit

12:                                               ; preds = %2
  %13 = icmp eq i64 %1, 0
  %14 = and i64 %1, 6
  %15 = icmp ne i64 %14, 0
  %16 = or i1 %13, %15
  br i1 %16, label %rb_int_abs.exit, label %rbimpl_RB_TYPE_P_fastpath.exit.i

rbimpl_RB_TYPE_P_fastpath.exit.i:                 ; preds = %12
  %17 = inttoptr i64 %1 to ptr
  %18 = load i64, ptr %17, align 8, !tbaa !11
  %19 = and i64 %18, 31
  %20 = icmp eq i64 %19, 10
  br i1 %20, label %21, label %rb_int_abs.exit

21:                                               ; preds = %rbimpl_RB_TYPE_P_fastpath.exit.i
  %22 = tail call i64 @rb_big_abs(i64 noundef %1) #26
  br label %rb_int_abs.exit

rb_int_abs.exit:                                  ; preds = %7, %10, %12, %rbimpl_RB_TYPE_P_fastpath.exit.i, %21
  %.0.i = phi i64 [ %22, %21 ], [ 4, %rbimpl_RB_TYPE_P_fastpath.exit.i ], [ %9, %7 ], [ %11, %10 ], [ 4, %12 ]
  ret i64 %.0.i
}